target datalayout = "e-m:e-p270:32:32-p271:32:32-p272:64:64-i64:64-i128:128-f80:128-n8:16:32:64-S128"
target triple = "x86_64-pc-linux-gnu"

%"class.facebook::yoga::Config" = type { ptr, ptr, i8, i32, %"class.std::bitset", i32, float, ptr }
%"class.std::bitset" = type { %"struct.std::_Base_bitset" }
%"struct.std::_Base_bitset" = type { i64 }

; Function Attrs: mustprogress uwtable
define noundef ptr @_ZNK8facebook4yoga6Config9cloneNodeEPK6YGNodeS4_m(ptr noundef nonnull align 8 dereferenceable(48) %0, ptr noundef %1, ptr noundef %2, i64 noundef %3) #0 align 2 {
  %5 = alloca ptr, align 8
  %6 = alloca ptr, align 8
  %7 = alloca ptr, align 8
  %8 = alloca i64, align 8
  %9 = alloca ptr, align 8
  store ptr %0, ptr %5, align 8, !tbaa !4
  store ptr %1, ptr %6, align 8, !tbaa !43
  store ptr %2, ptr %7, align 8, !tbaa !43
  store i64 %3, ptr %8, align 8, !tbaa !27
  %10 = load ptr, ptr %5, align 8
  call void @llvm.lifetime.start.p0(i64 8, ptr %9) #6
  store ptr null, ptr %9, align 8, !tbaa !43
  %11 = getelementptr inbounds nuw %"class.facebook::yoga::Config", ptr %10, i32 0, i32 0
  %12 = load ptr, ptr %11, align 8, !tbaa !42
  %13 = icmp ne ptr %12, null
  br i1 %13, label %14, label %21

14:                                               ; preds = %4
  %15 = getelementptr inbounds nuw %"class.facebook::yoga::Config", ptr %10, i32 0, i32 0
  %16 = load ptr, ptr %15, align 8, !tbaa !42
  %17 = load ptr, ptr %6, align 8, !tbaa !43
  %18 = load ptr, ptr %7, align 8, !tbaa !43
  %19 = load i64, ptr %8, align 8, !tbaa !27
  %20 = call noundef ptr %16(ptr noundef %17, ptr noundef %18, i64 noundef %19)
  store ptr %20, ptr %9, align 8, !tbaa !43
  br label %21

21:                                               ; preds = %14, %4
  %22 = load ptr, ptr %9, align 8, !tbaa !43
  %23 = icmp eq ptr %22, null
  br i1 %23, label %24, label %27

24:                                               ; preds = %21
  %25 = load ptr, ptr %6, align 8, !tbaa !43
  %26 = call ptr @YGNodeClone(ptr noundef %25)
  store ptr %26, ptr %9, align 8, !tbaa !43
  br label %27

27:                                               ; preds = %24, %21
  %28 = load ptr, ptr %9, align 8, !tbaa !43
  call void @llvm.lifetime.end.p0(i64 8, ptr %9) #6
  ret ptr %28
}