; Function Attrs: mustprogress uwtable
define noundef ptr @_ZNK8facebook4yoga6Config9cloneNodeEPK6YGNodeS4_m(ptr noundef nonnull readonly align 8 captures(none) dereferenceable(48) %0, ptr noundef %1, ptr noundef %2, i64 noundef %3) local_unnamed_addr #2 align 2 {
  %5 = load ptr, ptr %0, align 8, !tbaa !23
  %.not = icmp eq ptr %5, null
  br i1 %.not, label %.thread, label %6

6:                                                ; preds = %4
  %7 = tail call noundef ptr %5(ptr noundef %1, ptr noundef %2, i64 noundef %3)
  %8 = icmp eq ptr %7, null
  br i1 %8, label %.thread, label %10

.thread:                                          ; preds = %4, %6
  %9 = tail call ptr @YGNodeClone(ptr noundef %1)
  br label %10

10:                                               ; preds = %.thread, %6
  %.1 = phi ptr [ %9, %.thread ], [ %7, %6 ]
  ret ptr %.1
}